; Function Attrs: mustprogress nofree norecurse nosync nounwind willreturn memory(readwrite, inaccessiblemem: none) uwtable
define dso_local void @_ZN8cmTarget18CopyPolicyStatusesEPKS_(ptr noundef nonnull readonly align 8 captures(none) dereferenceable(8) %0, ptr noundef %1) local_unnamed_addr #15 align 2 {
  %3 = load ptr, ptr %1, align 8, !tbaa !22
  %4 = getelementptr inbounds nuw i8, ptr %3, i64 16
  %5 = load ptr, ptr %0, align 8, !tbaa !22
  %6 = getelementptr inbounds nuw i8, ptr %5, i64 16
  tail call void @llvm.memcpy.p0.p0.i64(ptr noundef nonnull align 8 dereferenceable(72) %6, ptr noundef nonnull align 8 dereferenceable(72) %4, i64 72, i1 false)
  %7 = load ptr, ptr %0, align 8, !tbaa !22
  %8 = getelementptr inbounds nuw i8, ptr %7, i64 88
  store ptr %1, ptr %8, align 8, !tbaa !218
  ret void
}